target datalayout = "e-m:e-p270:32:32-p271:32:32-p272:64:64-i64:64-i128:128-f80:128-n8:16:32:64-S128"
target triple = "x86_64-pc-linux-gnu"

%struct.option = type { i32, i32, ptr, ptr, ptr, ptr, i32, ptr, i64, ptr, i64, ptr }

@.str.72 = private unnamed_addr constant [1 x i8] zeroinitializer, align 1
@.str.85 = private unnamed_addr constant [13 x i8] c"builtin/am.c\00", align 1
@.str.87 = private unnamed_addr constant [41 x i8] c"option callback does not expect negation\00", align 1
@.str.88 = private unnamed_addr constant [25 x i8] c"bad action '%s' for '%s'\00", align 1
@.str.89 = private unnamed_addr constant [12 x i8] c"--quoted-cr\00", align 1
@git_gettext_enabled = external global i32, align 4

; Function Attrs: inlinehint nounwind uwtable
define internal i32 @const_error() #5 {
  ret i32 -1
}

; Function Attrs: inlinehint nounwind uwtable
define internal ptr @_(ptr noundef %0) #5 {
  %2 = alloca ptr, align 8
  %3 = alloca ptr, align 8
  store ptr %0, ptr %3, align 8, !tbaa !11
  %4 = load ptr, ptr %3, align 8, !tbaa !11
  %5 = load i8, ptr %4, align 1, !tbaa !84
  %6 = icmp ne i8 %5, 0
  br i1 %6, label %8, label %7

7:                                                ; preds = %1
  store ptr @.str.72, ptr %2, align 8
  br label %16

8:                                                ; preds = %1
  %9 = load i32, ptr @git_gettext_enabled, align 4, !tbaa !4
  %10 = icmp ne i32 %9, 0
  br i1 %10, label %13, label %11

11:                                               ; preds = %8
  %12 = load ptr, ptr %3, align 8, !tbaa !11
  store ptr %12, ptr %2, align 8
  br label %16

13:                                               ; preds = %8
  %14 = load ptr, ptr %3, align 8, !tbaa !11
  %15 = call ptr @dcgettext(ptr noundef null, ptr noundef %14, i32 noundef 5) #14
  store ptr %15, ptr %2, align 8
  br label %16

16:                                               ; preds = %13, %11, %7
  %17 = load ptr, ptr %2, align 8
  ret ptr %17
}

; Function Attrs: nounwind uwtable
define internal i32 @am_option_parse_quoted_cr(ptr noundef %0, ptr noundef %1, i32 noundef %2) #0 {
  %4 = alloca i32, align 4
  %5 = alloca ptr, align 8
  %6 = alloca ptr, align 8
  %7 = alloca i32, align 4
  store ptr %0, ptr %5, align 8, !tbaa !42
  store ptr %1, ptr %6, align 8, !tbaa !11
  store i32 %2, ptr %7, align 4, !tbaa !4
  br label %8

8:                                                ; preds = %3
  %9 = load i32, ptr %7, align 4, !tbaa !4
  %10 = icmp ne i32 %9, 0
  br i1 %10, label %11, label %12

11:                                               ; preds = %8
  call void (ptr, i32, ptr, ...) @BUG_fl(ptr noundef @.str.85, i32 noundef 196, ptr noundef @.str.87) #15
  unreachable

12:                                               ; preds = %8
  br label %13

13:                                               ; preds = %12
  %14 = load ptr, ptr %6, align 8, !tbaa !11
  %15 = load ptr, ptr %5, align 8, !tbaa !42
  %16 = getelementptr inbounds nuw %struct.option, ptr %15, i32 0, i32 3
  %17 = load ptr, ptr %16, align 8, !tbaa !20
  %18 = call i32 @mailinfo_parse_quoted_cr_action(ptr noundef %14, ptr noundef %17)
  %19 = icmp ne i32 %18, 0
  br i1 %19, label %20, label %25

20:                                               ; preds = %13
  %21 = call ptr @_(ptr noundef @.str.88)
  %22 = load ptr, ptr %6, align 8, !tbaa !11
  %23 = call i32 (ptr, ...) @error(ptr noundef %21, ptr noundef %22, ptr noundef @.str.89)
  %24 = call i32 @const_error()
  store i32 %24, ptr %4, align 4
  br label %26

25:                                               ; preds = %13
  store i32 0, ptr %4, align 4
  br label %26

26:                                               ; preds = %25, %20
  %27 = load i32, ptr %4, align 4
  ret i32 %27
}