; Function Attrs: nounwind uwtable
define internal range(i32 -1, 1) i32 @am_option_parse_quoted_cr(ptr noundef readonly captures(none) %0, ptr noundef %1, i32 noundef %2) #0 {
  %.not = icmp eq i32 %2, 0
  br i1 %.not, label %5, label %4

4:                                                ; preds = %3
  tail call void (ptr, i32, ptr, ...) @BUG_fl(ptr noundef nonnull @.str.85, i32 noundef 196, ptr noundef nonnull @.str.87) #22
  unreachable

5:                                                ; preds = %3
  %6 = getelementptr inbounds nuw i8, ptr %0, i64 16
  %7 = load ptr, ptr %6, align 8, !tbaa !15
  %8 = tail call i32 @mailinfo_parse_quoted_cr_action(ptr noundef %1, ptr noundef %7) #21
  %.not4 = icmp eq i32 %8, 0
  br i1 %.not4, label %14, label %9

9:                                                ; preds = %5
  %10 = load i32, ptr @git_gettext_enabled, align 4, !tbaa !4
  %.not4.i = icmp eq i32 %10, 0
  br i1 %.not4.i, label %_.exit, label %11

11:                                               ; preds = %9
  %12 = tail call ptr @dcgettext(ptr noundef null, ptr noundef nonnull @.str.88, i32 noundef 5) #21
  br label %_.exit

_.exit:                                           ; preds = %9, %11
  %.0.i = phi ptr [ %12, %11 ], [ @.str.88, %9 ]
  %13 = tail call i32 (ptr, ...) @error(ptr noundef %.0.i, ptr noundef %1, ptr noundef nonnull @.str.89) #21
  br label %14

14:                                               ; preds = %5, %_.exit
  %.0 = phi i32 [ -1, %_.exit ], [ 0, %5 ]
  ret i32 %.0
}